; Function Attrs: nounwind uwtable
define internal void @plpgsql_sql_error_callback(ptr noundef readonly captures(none) %0) #0 {
  %2 = getelementptr inbounds nuw i8, ptr %0, i64 8
  %3 = load ptr, ptr %2, align 8
  %4 = load i32, ptr %0, align 8
  %5 = tail call i32 @plpgsql_scanner_errposition(i32 noundef %4, ptr noundef %3) #12
  %6 = tail call i32 @geterrposition() #12
  %7 = icmp sgt i32 %6, 0
  br i1 %7, label %8, label %15

8:                                                ; preds = %1
  %9 = tail call i32 @getinternalerrposition() #12
  %10 = icmp sgt i32 %9, 0
  br i1 %10, label %11, label %15

11:                                               ; preds = %8
  %12 = add nsw i32 %6, -1
  %13 = add nuw i32 %12, %9
  %14 = tail call i32 @internalerrposition(i32 noundef %13) #12
  br label %15

15:                                               ; preds = %8, %11, %1
  %16 = tail call i32 @errposition(i32 noundef 0) #12
  ret void
}